; ModuleID = '55/283.c'
source_filename = "55/283.c"
target datalayout = "e-m:e-p270:32:32-p271:32:32-p272:64:64-i64:64-f80:128-n8:16:32:64-S128"
target triple = "x86_64-pc-linux-gnu"

@__const.main.b = private unnamed_addr constant [37 x i8] c"0123456789ABCDEFGHIJKLMNOPQRSTUVWXYZ\00", align 16
@.str = private unnamed_addr constant [9 x i8] c"%d %s %d\00", align 1
@.str.1 = private unnamed_addr constant [3 x i8] c"%c\00", align 1

; Function Attrs: noinline nounwind uwtable
define dso_local i32 @main() #0 {
  %1 = alloca i32, align 4
  %2 = alloca i32, align 4
  %3 = alloca i32, align 4
  %4 = alloca i32, align 4
  %5 = alloca i32, align 4
  %6 = alloca i32, align 4
  %7 = alloca i32, align 4
  %8 = alloca [80 x i8], align 16
  %9 = alloca [80 x i8], align 16
  %10 = alloca [37 x i8], align 16
  store i32 0, i32* %1, align 4
  store i32 0, i32* %5, align 4
  store i32 0, i32* %7, align 4
  %11 = bitcast [37 x i8]* %10 to i8*
  call void @llvm.memcpy.p0i8.p0i8.i64(i8* align 16 %11, i8* align 16 getelementptr inbounds ([37 x i8], [37 x i8]* @__const.main.b, i32 0, i32 0), i64 37, i1 false)
  %12 = getelementptr inbounds [80 x i8], [80 x i8]* %8, i64 0, i64 0
  %13 = call i32 (i8*, ...) @__isoc99_scanf(i8* getelementptr inbounds ([9 x i8], [9 x i8]* @.str, i64 0, i64 0), i32* %2, i8* %12, i32* %3)
  store i32 0, i32* %4, align 4
  br label %14

14:                                               ; preds = %75, %0
  %15 = load i32, i32* %4, align 4
  %16 = sext i32 %15 to i64
  %17 = getelementptr inbounds [80 x i8], [80 x i8]* %8, i64 0, i64 %16
  %18 = load i8, i8* %17, align 1
  %19 = sext i8 %18 to i32
  %20 = icmp ne i32 %19, 0
  br i1 %20, label %21, label %78

21:                                               ; preds = %14
  store i32 0, i32* %6, align 4
  br label %22

22:                                               ; preds = %71, %21
  %23 = load i32, i32* %6, align 4
  %24 = icmp slt i32 %23, 37
  br i1 %24, label %25, label %74

25:                                               ; preds = %22
  %26 = load i32, i32* %4, align 4
  %27 = sext i32 %26 to i64
  %28 = getelementptr inbounds [80 x i8], [80 x i8]* %8, i64 0, i64 %27
  %29 = load i8, i8* %28, align 1
  %30 = sext i8 %29 to i32
  %31 = load i32, i32* %6, align 4
  %32 = sext i32 %31 to i64
  %33 = getelementptr inbounds [37 x i8], [37 x i8]* %10, i64 0, i64 %32
  %34 = load i8, i8* %33, align 1
  %35 = sext i8 %34 to i32
  %36 = icmp eq i32 %30, %35
  br i1 %36, label %64, label %37

37:                                               ; preds = %25
  %38 = load i32, i32* %4, align 4
  %39 = sext i32 %38 to i64
  %40 = getelementptr inbounds [80 x i8], [80 x i8]* %8, i64 0, i64 %39
  %41 = load i8, i8* %40, align 1
  %42 = sext i8 %41 to i32
  %43 = load i32, i32* %6, align 4
  %44 = sext i32 %43 to i64
  %45 = getelementptr inbounds [37 x i8], [37 x i8]* %10, i64 0, i64 %44
  %46 = load i8, i8* %45, align 1
  %47 = sext i8 %46 to i32
  %48 = add nsw i32 %47, 32
  %49 = icmp eq i32 %42, %48
  br i1 %49, label %50, label %70

50:                                               ; preds = %37
  %51 = load i32, i32* %4, align 4
  %52 = sext i32 %51 to i64
  %53 = getelementptr inbounds [80 x i8], [80 x i8]* %8, i64 0, i64 %52
  %54 = load i8, i8* %53, align 1
  %55 = sext i8 %54 to i32
  %56 = icmp sge i32 %55, 97
  br i1 %56, label %57, label %70

57:                                               ; preds = %50
  %58 = load i32, i32* %4, align 4
  %59 = sext i32 %58 to i64
  %60 = getelementptr inbounds [80 x i8], [80 x i8]* %8, i64 0, i64 %59
  %61 = load i8, i8* %60, align 1
  %62 = sext i8 %61 to i32
  %63 = icmp sle i32 %62, 122
  br i1 %63, label %64, label %70

64:                                               ; preds = %57, %25
  %65 = load i32, i32* %5, align 4
  %66 = load i32, i32* %2, align 4
  %67 = mul nsw i32 %65, %66
  %68 = load i32, i32* %6, align 4
  %69 = add nsw i32 %67, %68
  store i32 %69, i32* %5, align 4
  br label %70

70:                                               ; preds = %64, %57, %50, %37
  br label %71

71:                                               ; preds = %70
  %72 = load i32, i32* %6, align 4
  %73 = add nsw i32 %72, 1
  store i32 %73, i32* %6, align 4
  br label %22

74:                                               ; preds = %22
  br label %75

75:                                               ; preds = %74
  %76 = load i32, i32* %4, align 4
  %77 = add nsw i32 %76, 1
  store i32 %77, i32* %4, align 4
  br label %14

78:                                               ; preds = %14
  store i32 79, i32* %4, align 4
  br label %79

79:                                               ; preds = %101, %78
  %80 = load i32, i32* %4, align 4
  %81 = icmp sgt i32 %80, 0
  br i1 %81, label %82, label %104

82:                                               ; preds = %79
  %83 = load i32, i32* %5, align 4
  %84 = load i32, i32* %3, align 4
  %85 = srem i32 %83, %84
  %86 = sext i32 %85 to i64
  %87 = getelementptr inbounds [37 x i8], [37 x i8]* %10, i64 0, i64 %86
  %88 = load i8, i8* %87, align 1
  %89 = load i32, i32* %4, align 4
  %90 = sext i32 %89 to i64
  %91 = getelementptr inbounds [80 x i8], [80 x i8]* %9, i64 0, i64 %90
  store i8 %88, i8* %91, align 1
  %92 = load i32, i32* %7, align 4
  %93 = add nsw i32 %92, 1
  store i32 %93, i32* %7, align 4
  %94 = load i32, i32* %5, align 4
  %95 = load i32, i32* %3, align 4
  %96 = sdiv i32 %94, %95
  store i32 %96, i32* %5, align 4
  %97 = load i32, i32* %5, align 4
  %98 = icmp eq i32 %97, 0
  br i1 %98, label %99, label %100

99:                                               ; preds = %82
  br label %104

100:                                              ; preds = %82
  br label %101

101:                                              ; preds = %100
  %102 = load i32, i32* %4, align 4
  %103 = add nsw i32 %102, -1
  store i32 %103, i32* %4, align 4
  br label %79

104:                                              ; preds = %99, %79
  %105 = load i32, i32* %7, align 4
  %106 = sub nsw i32 80, %105
  store i32 %106, i32* %4, align 4
  br label %107

107:                                              ; preds = %117, %104
  %108 = load i32, i32* %4, align 4
  %109 = icmp slt i32 %108, 80
  br i1 %109, label %110, label %120

110:                                              ; preds = %107
  %111 = load i32, i32* %4, align 4
  %112 = sext i32 %111 to i64
  %113 = getelementptr inbounds [80 x i8], [80 x i8]* %9, i64 0, i64 %112
  %114 = load i8, i8* %113, align 1
  %115 = sext i8 %114 to i32
  %116 = call i32 (i8*, ...) @printf(i8* getelementptr inbounds ([3 x i8], [3 x i8]* @.str.1, i64 0, i64 0), i32 %115)
  br label %117

117:                                              ; preds = %110
  %118 = load i32, i32* %4, align 4
  %119 = add nsw i32 %118, 1
  store i32 %119, i32* %4, align 4
  br label %107

120:                                              ; preds = %107
  ret i32 0
}

; Function Attrs: argmemonly nounwind willreturn
declare void @llvm.memcpy.p0i8.p0i8.i64(i8* noalias nocapture writeonly, i8* noalias nocapture readonly, i64, i1 immarg) #1

declare dso_local i32 @__isoc99_scanf(i8*, ...) #2

declare dso_local i32 @printf(i8*, ...) #2


!llvm.module.flags = !{!0}
!llvm.ident = !{!1}

!0 = !{i32 1, !"wchar_size", i32 4}
!1 = !{!"clang version 10.0.0-4ubuntu1 "}
